target datalayout = "e-m:e-p270:32:32-p271:32:32-p272:64:64-i64:64-i128:128-f80:128-n8:16:32:64-S128"
target triple = "x86_64-pc-linux-gnu"

%struct.loopargs_st = type { ptr, ptr, ptr, ptr, ptr, ptr, ptr, [16 x i8], i64, i64, i64, [7 x ptr], [7 x ptr], [7 x ptr], [7 x ptr], [2 x ptr], [2 x ptr], [22 x ptr], [22 x ptr], [24 x ptr], [2 x ptr], [2 x ptr], [1 x ptr], [1 x ptr], [1 x ptr], ptr, ptr, [24 x i64], [5 x ptr], ptr, ptr, ptr, ptr, [111 x ptr], [111 x ptr], [111 x ptr], [111 x i64], [111 x i64], [111 x ptr], [111 x ptr], [111 x ptr], [111 x ptr], [111 x ptr], [111 x ptr], [111 x i64], [111 x i64], [111 x ptr] }

@testmode = internal global i32 0, align 4
@lengths = internal global ptr @lengths_list, align 8
@testnum = internal global i32 0, align 4
@run = internal global i32 0, align 4

; Function Attrs: nounwind uwtable
define internal i32 @EVP_Digest_loop(ptr noundef %0, i32 noundef %1, ptr noundef %2) #0 {
  %4 = alloca i32, align 4
  %5 = alloca ptr, align 8
  %6 = alloca i32, align 4
  %7 = alloca ptr, align 8
  %8 = alloca ptr, align 8
  %9 = alloca ptr, align 8
  %10 = alloca [64 x i8], align 16
  %11 = alloca i32, align 4
  %12 = alloca ptr, align 8
  %13 = alloca ptr, align 8
  %14 = alloca i32, align 4
  store ptr %0, ptr %5, align 8, !tbaa !39
  store i32 %1, ptr %6, align 4, !tbaa !4
  store ptr %2, ptr %7, align 8, !tbaa !115
  call void @llvm.lifetime.start.p0(i64 8, ptr %8) #11
  %15 = load ptr, ptr %7, align 8, !tbaa !115
  %16 = load ptr, ptr %15, align 8, !tbaa !37
  store ptr %16, ptr %8, align 8, !tbaa !37
  call void @llvm.lifetime.start.p0(i64 8, ptr %9) #11
  %17 = load ptr, ptr %8, align 8, !tbaa !37
  %18 = getelementptr inbounds nuw %struct.loopargs_st, ptr %17, i32 0, i32 2
  %19 = load ptr, ptr %18, align 8, !tbaa !92
  store ptr %19, ptr %9, align 8, !tbaa !39
  call void @llvm.lifetime.start.p0(i64 64, ptr %10) #11
  call void @llvm.lifetime.start.p0(i64 4, ptr %11) #11
  call void @llvm.lifetime.start.p0(i64 8, ptr %12) #11
  store ptr null, ptr %12, align 8, !tbaa !217
  call void @llvm.lifetime.start.p0(i64 8, ptr %13) #11
  store ptr null, ptr %13, align 8, !tbaa !169
  %20 = load ptr, ptr %5, align 8, !tbaa !39
  %21 = call i32 @opt_md_silent(ptr noundef %20, ptr noundef %12)
  %22 = icmp ne i32 %21, 0
  br i1 %22, label %24, label %23

23:                                               ; preds = %3
  store i32 -1, ptr %4, align 4
  store i32 1, ptr %14, align 4
  br label %107

24:                                               ; preds = %3
  %25 = load ptr, ptr %12, align 8, !tbaa !217
  %26 = call i32 @EVP_MD_xof(ptr noundef %25)
  %27 = icmp ne i32 %26, 0
  br i1 %27, label %28, label %72

28:                                               ; preds = %24
  %29 = call ptr @EVP_MD_CTX_new()
  store ptr %29, ptr %13, align 8, !tbaa !169
  %30 = load ptr, ptr %13, align 8, !tbaa !169
  %31 = icmp eq ptr %30, null
  br i1 %31, label %32, label %33

32:                                               ; preds = %28
  store i32 -1, ptr %11, align 4, !tbaa !4
  br label %103

33:                                               ; preds = %28
  store i32 0, ptr %11, align 4, !tbaa !4
  br label %34

34:                                               ; preds = %68, %33
  %35 = load volatile i32, ptr @run, align 4, !tbaa !4
  %36 = icmp ne i32 %35, 0
  br i1 %36, label %37, label %43

37:                                               ; preds = %34
  %38 = load i32, ptr %11, align 4, !tbaa !4
  %39 = load i32, ptr @testmode, align 4, !tbaa !4
  %40 = icmp ne i32 %39, 0
  %41 = select i1 %40, i32 1, i32 2147483647
  %42 = icmp slt i32 %38, %41
  br label %43

43:                                               ; preds = %37, %34
  %44 = phi i1 [ false, %34 ], [ %42, %37 ]
  br i1 %44, label %45, label %71

45:                                               ; preds = %43
  %46 = load ptr, ptr %13, align 8, !tbaa !169
  %47 = load ptr, ptr %12, align 8, !tbaa !217
  %48 = call i32 @EVP_DigestInit_ex2(ptr noundef %46, ptr noundef %47, ptr noundef null)
  %49 = icmp ne i32 %48, 0
  br i1 %49, label %50, label %66

50:                                               ; preds = %45
  %51 = load ptr, ptr %13, align 8, !tbaa !169
  %52 = load ptr, ptr %9, align 8, !tbaa !39
  %53 = load ptr, ptr @lengths, align 8, !tbaa !66
  %54 = load i32, ptr @testnum, align 4, !tbaa !4
  %55 = zext i32 %54 to i64
  %56 = getelementptr inbounds nuw i32, ptr %53, i64 %55
  %57 = load i32, ptr %56, align 4, !tbaa !4
  %58 = sext i32 %57 to i64
  %59 = call i32 @EVP_DigestUpdate(ptr noundef %51, ptr noundef %52, i64 noundef %58)
  %60 = icmp ne i32 %59, 0
  br i1 %60, label %61, label %66

61:                                               ; preds = %50
  %62 = load ptr, ptr %13, align 8, !tbaa !169
  %63 = getelementptr inbounds [64 x i8], ptr %10, i64 0, i64 0
  %64 = call i32 @EVP_DigestFinalXOF(ptr noundef %62, ptr noundef %63, i64 noundef 64)
  %65 = icmp ne i32 %64, 0
  br i1 %65, label %67, label %66

66:                                               ; preds = %61, %50, %45
  store i32 -1, ptr %11, align 4, !tbaa !4
  br label %71

67:                                               ; preds = %61
  br label %68

68:                                               ; preds = %67
  %69 = load i32, ptr %11, align 4, !tbaa !4
  %70 = add nsw i32 %69, 1
  store i32 %70, ptr %11, align 4, !tbaa !4
  br label %34, !llvm.loop !302

71:                                               ; preds = %66, %43
  br label %102

72:                                               ; preds = %24
  store i32 0, ptr %11, align 4, !tbaa !4
  br label %73

73:                                               ; preds = %98, %72
  %74 = load volatile i32, ptr @run, align 4, !tbaa !4
  %75 = icmp ne i32 %74, 0
  br i1 %75, label %76, label %82

76:                                               ; preds = %73
  %77 = load i32, ptr %11, align 4, !tbaa !4
  %78 = load i32, ptr @testmode, align 4, !tbaa !4
  %79 = icmp ne i32 %78, 0
  %80 = select i1 %79, i32 1, i32 2147483647
  %81 = icmp slt i32 %77, %80
  br label %82

82:                                               ; preds = %76, %73
  %83 = phi i1 [ false, %73 ], [ %81, %76 ]
  br i1 %83, label %84, label %101

84:                                               ; preds = %82
  %85 = load ptr, ptr %9, align 8, !tbaa !39
  %86 = load ptr, ptr @lengths, align 8, !tbaa !66
  %87 = load i32, ptr @testnum, align 4, !tbaa !4
  %88 = zext i32 %87 to i64
  %89 = getelementptr inbounds nuw i32, ptr %86, i64 %88
  %90 = load i32, ptr %89, align 4, !tbaa !4
  %91 = sext i32 %90 to i64
  %92 = getelementptr inbounds [64 x i8], ptr %10, i64 0, i64 0
  %93 = load ptr, ptr %12, align 8, !tbaa !217
  %94 = call i32 @EVP_Digest(ptr noundef %85, i64 noundef %91, ptr noundef %92, ptr noundef null, ptr noundef %93, ptr noundef null)
  %95 = icmp ne i32 %94, 0
  br i1 %95, label %97, label %96

96:                                               ; preds = %84
  store i32 -1, ptr %11, align 4, !tbaa !4
  br label %101

97:                                               ; preds = %84
  br label %98

98:                                               ; preds = %97
  %99 = load i32, ptr %11, align 4, !tbaa !4
  %100 = add nsw i32 %99, 1
  store i32 %100, ptr %11, align 4, !tbaa !4
  br label %73, !llvm.loop !303

101:                                              ; preds = %96, %82
  br label %102

102:                                              ; preds = %101, %71
  br label %103

103:                                              ; preds = %102, %32
  %104 = load ptr, ptr %12, align 8, !tbaa !217
  call void @EVP_MD_free(ptr noundef %104)
  %105 = load ptr, ptr %13, align 8, !tbaa !169
  call void @EVP_MD_CTX_free(ptr noundef %105)
  %106 = load i32, ptr %11, align 4, !tbaa !4
  store i32 %106, ptr %4, align 4
  store i32 1, ptr %14, align 4
  br label %107

107:                                              ; preds = %103, %23
  call void @llvm.lifetime.end.p0(i64 8, ptr %13) #11
  call void @llvm.lifetime.end.p0(i64 8, ptr %12) #11
  call void @llvm.lifetime.end.p0(i64 4, ptr %11) #11
  call void @llvm.lifetime.end.p0(i64 64, ptr %10) #11
  call void @llvm.lifetime.end.p0(i64 8, ptr %9) #11
  call void @llvm.lifetime.end.p0(i64 8, ptr %8) #11
  %108 = load i32, ptr %4, align 4
  ret i32 %108
}