; Function Attrs: nounwind uwtable
define internal fastcc range(i32 -1, -2147483648) i32 @EVP_Digest_loop(ptr noundef %0, ptr %.0.val.16.val) unnamed_addr #0 {
  %2 = alloca [64 x i8], align 16
  %3 = alloca ptr, align 8
  call void @llvm.lifetime.start.p0(i64 64, ptr nonnull %2) #14
  call void @llvm.lifetime.start.p0(i64 8, ptr nonnull %3) #14
  store ptr null, ptr %3, align 8, !tbaa !21
  %4 = call i32 @opt_md_silent(ptr noundef %0, ptr noundef nonnull %3) #14
  %.not = icmp eq i32 %4, 0
  br i1 %.not, label %46, label %5

5:                                                ; preds = %1
  %6 = load ptr, ptr %3, align 8, !tbaa !21
  %7 = call i32 @EVP_MD_xof(ptr noundef %6) #14
  %.not22 = icmp eq i32 %7, 0
  br i1 %.not22, label %.preheader, label %9

.preheader:                                       ; preds = %5
  %8 = load volatile i32, ptr @run, align 4, !tbaa !13
  %.not2314 = icmp eq i32 %8, 0
  br i1 %.not2314, label %.critedge, label %.lr.ph16

9:                                                ; preds = %5
  %10 = call ptr @EVP_MD_CTX_new() #14
  %11 = icmp eq ptr %10, null
  br i1 %11, label %.critedge, label %.preheader1

.preheader1:                                      ; preds = %9
  %12 = load volatile i32, ptr @run, align 4, !tbaa !13
  %.not254 = icmp eq i32 %12, 0
  br i1 %.not254, label %.critedge, label %.lr.ph

.lr.ph:                                           ; preds = %.preheader1, %28
  %.15 = phi i32 [ %29, %28 ], [ 0, %.preheader1 ]
  %.b21 = load i1, ptr @testmode, align 4
  %13 = select i1 %.b21, i32 1, i32 2147483647
  %14 = icmp samesign ult i32 %.15, %13
  br i1 %14, label %15, label %.critedge

15:                                               ; preds = %.lr.ph
  %16 = load ptr, ptr %3, align 8, !tbaa !21
  %17 = call i32 @EVP_DigestInit_ex2(ptr noundef nonnull %10, ptr noundef %16, ptr noundef null) #14
  %.not26 = icmp eq i32 %17, 0
  br i1 %.not26, label %.critedge, label %18

18:                                               ; preds = %15
  %19 = load ptr, ptr @lengths, align 8, !tbaa !26
  %20 = load i32, ptr @testnum, align 4, !tbaa !13
  %21 = zext i32 %20 to i64
  %22 = getelementptr inbounds nuw i32, ptr %19, i64 %21
  %23 = load i32, ptr %22, align 4, !tbaa !13
  %24 = sext i32 %23 to i64
  %25 = call i32 @EVP_DigestUpdate(ptr noundef nonnull %10, ptr noundef %.0.val.16.val, i64 noundef %24) #14
  %.not27 = icmp eq i32 %25, 0
  br i1 %.not27, label %.critedge, label %26

26:                                               ; preds = %18
  %27 = call i32 @EVP_DigestFinalXOF(ptr noundef nonnull %10, ptr noundef nonnull %2, i64 noundef 64) #14
  %.not28 = icmp eq i32 %27, 0
  br i1 %.not28, label %.critedge, label %28

28:                                               ; preds = %26
  %29 = add nuw nsw i32 %.15, 1
  %30 = load volatile i32, ptr @run, align 4, !tbaa !13
  %.not25 = icmp eq i32 %30, 0
  br i1 %.not25, label %.critedge, label %.lr.ph, !llvm.loop !237

.lr.ph16:                                         ; preds = %.preheader, %42
  %.215 = phi i32 [ %43, %42 ], [ 0, %.preheader ]
  %.b = load i1, ptr @testmode, align 4
  %31 = select i1 %.b, i32 1, i32 2147483647
  %32 = icmp samesign ult i32 %.215, %31
  br i1 %32, label %33, label %.critedge

33:                                               ; preds = %.lr.ph16
  %34 = load ptr, ptr @lengths, align 8, !tbaa !26
  %35 = load i32, ptr @testnum, align 4, !tbaa !13
  %36 = zext i32 %35 to i64
  %37 = getelementptr inbounds nuw i32, ptr %34, i64 %36
  %38 = load i32, ptr %37, align 4, !tbaa !13
  %39 = sext i32 %38 to i64
  %40 = load ptr, ptr %3, align 8, !tbaa !21
  %41 = call i32 @EVP_Digest(ptr noundef %.0.val.16.val, i64 noundef %39, ptr noundef nonnull %2, ptr noundef null, ptr noundef %40, ptr noundef null) #14
  %.not24 = icmp eq i32 %41, 0
  br i1 %.not24, label %.critedge, label %42

42:                                               ; preds = %33
  %43 = add nuw nsw i32 %.215, 1
  %44 = load volatile i32, ptr @run, align 4, !tbaa !13
  %.not23 = icmp eq i32 %44, 0
  br i1 %.not23, label %.critedge, label %.lr.ph16, !llvm.loop !238

.critedge:                                        ; preds = %.lr.ph, %28, %26, %18, %15, %.lr.ph16, %42, %33, %.preheader1, %.preheader, %9
  %.017 = phi i32 [ -1, %9 ], [ 0, %.preheader ], [ 0, %.preheader1 ], [ %.215, %.lr.ph16 ], [ %43, %42 ], [ -1, %33 ], [ %.15, %.lr.ph ], [ %29, %28 ], [ -1, %26 ], [ -1, %18 ], [ -1, %15 ]
  %.0 = phi ptr [ null, %9 ], [ null, %.preheader ], [ %10, %.preheader1 ], [ null, %33 ], [ null, %42 ], [ null, %.lr.ph16 ], [ %10, %15 ], [ %10, %18 ], [ %10, %26 ], [ %10, %28 ], [ %10, %.lr.ph ]
  %45 = load ptr, ptr %3, align 8, !tbaa !21
  call void @EVP_MD_free(ptr noundef %45) #14
  call void @EVP_MD_CTX_free(ptr noundef %.0) #14
  br label %46

46:                                               ; preds = %1, %.critedge
  %.018 = phi i32 [ %.017, %.critedge ], [ -1, %1 ]
  call void @llvm.lifetime.end.p0(i64 8, ptr nonnull %3) #14
  call void @llvm.lifetime.end.p0(i64 64, ptr nonnull %2) #14
  ret i32 %.018
}